(lp0
(dp1
S'file'
p2
S'/home/nherbaut/workspace/algotel2016-code/offline/data/ecix-daily_fra_5T.csvx'
p3
sS'price_fc80'
p4
cnumpy.core.multiarray
scalar
p5
(cnumpy
dtype
p6
(S'f8'
p7
I0
I1
tp8
Rp9
(I3
S'<'
p10
NNNI-1
I-1
I0
tp11
bS'\xf1\x8b\x02\xa2\xa0.\x82B'
p12
tp13
Rp14
sS'price_fc95'
p15
g5
(g9
S'c\x9e#\x80\xaa\xe1\x82B'
p16
tp17
Rp18
sS'MASE'
p19
g5
(g9
S'y\x051r|\xdb\xed?'
p20
tp21
Rp22
sS'MEA'
p23
g5
(g9
S'pu\x01^\xa5J\tB'
p24
tp25
Rp26
sS'MAPE'
p27
g5
(g9
S'\\\x12V\x00R\xc4\xdd?'
p28
tp29
Rp30
sS'RMSE'
p31
g5
(g9
S'!r\xf4M?\xa3\rB'
p32
tp33
Rp34
sS'sla_vio_fc80'
p35
F4.166666666666667
sS'sla_vio_fc95'
p36
F0.0
sS'sla_vio_mean'
p37
F75.0
sS'price_fcmean'
p38
g5
(g9
S'\xf1\x9fQej\xdc\x80B'
p39
tp40
Rp41
sa(dp42
g2
S'/home/nherbaut/workspace/algotel2016-code/offline/data/ecix-ber-daily_ber_5T.csvx'
p43
sg4
g5
(g9
S'\xb0\xf8\xbfO\x9a\xc0QB'
p44
tp45
Rp46
sg15
g5
(g9
S'U6+\x10\xbe\rSB'
p47
tp48
Rp49
sg19
g5
(g9
S'J(\xbft<\x83\xf0?'
p50
tp51
Rp52
sg23
g5
(g9
S'\xe8\x1d}K\x96\xd1\xeaA'
p53
tp54
Rp55
sg27
g5
(g9
S'f\x0f\xc6\x83\x0c\xd5\xed?'
p56
tp57
Rp58
sg31
g5
(g9
S'p\xa1\x956\x8d-\xf2A'
p59
tp60
Rp61
sg35
F12.5
sg36
F4.166666666666667
sg37
F33.333333333333336
sg38
g5
(g9
S'\xd1\xe9\x81\xf0\x92\x96NB'
p62
tp63
Rp64
sa(dp65
g2
S'/home/nherbaut/workspace/algotel2016-code/offline/data/pa-par2-daily_1H.csvx'
p66
sg4
g5
(g9
S'\xc1\xda\xa4Um\xd7*B'
p67
tp68
Rp69
sg15
g5
(g9
S'\x01\x10\xe5\xad\xd2\xb7+B'
p70
tp71
Rp72
sg19
g5
(g9
S'\xcb|\x04\xc4\xbc\xd7\xed?'
p73
tp74
Rp75
sg23
g5
(g9
S'P\x10\xdc\xb7\x844\xbaA'
p76
tp77
Rp78
sg27
g5
(g9
S'(\x82\xef74/\xe5?'
p79
tp80
Rp81
sg31
g5
(g9
S'e\xe1K{/\xff\xbeA'
p82
tp83
Rp84
sg35
F12.5
sg36
F0.0
sg37
F87.5
sg38
g5
(g9
S'P(\xcf\x04\xc7\x8d)B'
p85
tp86
Rp87
sa(dp88
g2
S'/home/nherbaut/workspace/algotel2016-code/offline/data/Seattle-IX-daily-out_5T.csvx.out'
p89
sg4
g5
(g9
S'\x01[_\x89\xfd-{A'
p90
tp91
Rp92
sg15
g5
(g9
S'\xe4\x8c\xde\xfbw0\x80A'
p93
tp94
Rp95
sg19
g5
(g9
S'\xe1\x0e\xc5\xf0L\xed\xef?'
p96
tp97
Rp98
sg23
g5
(g9
S'\\\x9b\x99\x03\xfa\xe0\x12A'
p99
tp100
Rp101
sg27
g5
(g9
S"GN\xa3\x13'\xb0\xf3?"
p102
tp103
Rp104
sg31
g5
(g9
S'\xb2\x0f=\xd7\xcb\x87\x16A'
p105
tp106
Rp107
sg35
F0.0
sg36
F0.0
sg37
F29.166666666666668
sg38
g5
(g9
S'KR}\xd3I>rA'
p108
tp109
Rp110
sa(dp111
g2
S'/home/nherbaut/workspace/algotel2016-code/offline/data/Los-Angeles-IX-daily-in_5T.csvx'
p112
sg4
g5
(g9
S'_\x9b\xe8\xf4\xcajyA'
p113
tp114
Rp115
sg15
g5
(g9
S'\xcd6/.\x84z\x81A'
p116
tp117
Rp118
sg19
g5
(g9
S'\x06\xbc\xd3\xb1l\xa2\xd7?'
p119
tp120
Rp121
sg23
g5
(g9
S'\xdd\x99%\xe7nZ\x0bA'
p122
tp123
Rp124
sg27
g5
(g9
S'pA\x02L\x14\x86\xfa?'
p125
tp126
Rp127
sg31
g5
(g9
S'{nK\x18\x84Q\x0eA'
p128
tp129
Rp130
sg35
F0.0
sg36
F0.0
sg37
F91.66666666666667
sg38
g5
(g9
S'\xfa\xd2\xb4Ls\x8ffA'
p131
tp132
Rp133
sa(dp134
g2
S'/home/nherbaut/workspace/algotel2016-code/offline/data/Perth-IX-daily-in_5T.csvx'
p135
sg4
g5
(g9
S';\x1e\xd7\xf8\xca\xb4\xfd?'
p136
tp137
Rp138
sg15
g5
(g9
S'\xc9:;yp"\xfe?'
p139
tp140
Rp141
sg19
g5
(g9
S'\xa9\xcf\xd1\xe3\x88\xbd\xe4?'
p142
tp143
Rp144
sg23
g5
(g9
S'\xeb\x8d\xe5\xf3\xdd\xf2r?'
p145
tp146
Rp147
sg27
g5
(g9
S'26\xff\xb90$\xc5?'
p148
tp149
Rp150
sg31
g5
(g9
S'C\xe8\x91\xd7!_w?'
p151
tp152
Rp153
sg35
F4.166666666666667
sg36
F0.0
sg37
F54.166666666666664
sg38
g5
(g9
S'\xda&\xe4k\xaa\xe5\xfc?'
p154
tp155
Rp156
sa(dp157
g2
S'/home/nherbaut/workspace/algotel2016-code/offline/data/Ashburn-IX-daily-out_5T.csvx'
p158
sg4
g5
(g9
S'\xd0\xdd\xd8\xc3c\xed`A'
p159
tp160
Rp161
sg15
g5
(g9
S'j\xa1"\xcd\'YgA'
p162
tp163
Rp164
sg19
g5
(g9
S'\xa2x\x7fQ\x061\xf4?'
p165
tp166
Rp167
sg23
g5
(g9
S'\x03\xbc\xcaC|+\x01A'
p168
tp169
Rp170
sg27
g5
(g9
S'\x9d\x971\xad3-\x1a@'
p171
tp172
Rp173
sg31
g5
(g9
S'qK\x92Q\x8d/\x03A'
p174
tp175
Rp176
sg35
F0.0
sg36
F0.0
sg37
F4.166666666666667
sg38
g5
(g9
S'\xe8\x88\xc1\xd7BjCA'
p177
tp178
Rp179
sa(dp180
g2
S'/home/nherbaut/workspace/algotel2016-code/offline/data/linx-car1-daily_5T.csvx'
p181
sg4
g5
(g9
S'Bo\xab\xdd\xa4\xdf\xccA'
p182
tp183
Rp184
sg15
g5
(g9
S'\x17\xaf\xc0\x1aIq\xd5A'
p185
tp186
Rp187
sg19
g5
(g9
S'\xddA\x989\xae\xf6\xe5?'
p188
tp189
Rp190
sg23
g5
(g9
S';h\xe0\xea\xf6\xc2zA'
p191
tp192
Rp193
sg27
g5
(g9
S'\x93\xfeyHh\x81$@'
p194
tp195
Rp196
sg31
g5
(g9
S'\x19\x84\x1a\x94\xaf\xec\x81A'
p197
tp198
Rp199
sg35
F0.0
sg36
F0.0
sg37
F87.5
sg38
g5
(g9
S' \xa7\xf0W8\xf4\xa6A'
p200
tp201
Rp202
sa(dp203
g2
S'/home/nherbaut/workspace/algotel2016-code/offline/data/Chicago-IX-daily-out_5T.csvx'
p204
sg4
g5
(g9
S'\xde\x0b\x17a9\xeasA'
p205
tp206
Rp207
sg15
g5
(g9
S'4\xdd\x8a\x1a\xc6YuA'
p208
tp209
Rp210
sg19
g5
(g9
S'\x14h\xb2~\xef*\xf7?'
p211
tp212
Rp213
sg23
g5
(g9
S'\x03\x1e\xb6){\xdc\x17A'
p214
tp215
Rp216
sg27
g5
(g9
S'\xe5ON\xb0.\x82\xf6?'
p217
tp218
Rp219
sg31
g5
(g9
S'\x1b\xc1H\xe0M\xbe\x1bA'
p220
tp221
Rp222
sg35
F29.166666666666668
sg36
F12.5
sg37
F75.0
sg38
g5
(g9
S'x\x9b\xe4\xfd\xe73qA'
p223
tp224
Rp225
sa(dp226
g2
S'/home/nherbaut/workspace/algotel2016-code/offline/data/Seattle-IX-daily-in_5T.csvx'
p227
sg4
g5
(g9
S'B\xc7\xcc\xd5z\xa6{A'
p228
tp229
Rp230
sg15
g5
(g9
S'v\x98JX\xf5Z\x80A'
p231
tp232
Rp233
sg19
g5
(g9
S'\x7f.\x97\x06\xeb,\xf1?'
p234
tp235
Rp236
sg23
g5
(g9
S'\xcd\xfc\\7\x8cO\x14A'
p237
tp238
Rp239
sg27
g5
(g9
S'\xbb\xe0\xe7\xf5\xdac\xf5?'
p240
tp241
Rp242
sg31
g5
(g9
S'\x97\x9eq\xbf\x06\xaa\x18A'
p243
tp244
Rp245
sg35
F0.0
sg36
F0.0
sg37
F20.833333333333332
sg38
g5
(g9
S'\xd5\x14\xf2\xdd\xcasrA'
p246
tp247
Rp248
sa(dp249
g2
S'/home/nherbaut/workspace/algotel2016-code/offline/data/Hong-Kong-IX-daily-in_5T.csvx'
p250
sg4
g5
(g9
S'\xbac\xf9\xc0\\\xb8mA'
p251
tp252
Rp253
sg15
g5
(g9
S'\xa3\x91\x8bi`\x93oA'
p254
tp255
Rp256
sg19
g5
(g9
S',\xfa\xc3hr\x99\xe9?'
p257
tp258
Rp259
sg23
g5
(g9
S'a\x14\xa6P\xf6y\x0eA'
p260
tp261
Rp262
sg27
g5
(g9
S'^?\xe9\xf3\x93\x0f\xfb?'
p263
tp264
Rp265
sg31
g5
(g9
S'Ke~\xd5\x7f\xc8\x11A'
p266
tp267
Rp268
sg35
F0.0
sg36
F0.0
sg37
F58.333333333333336
sg38
g5
(g9
S't\xb9\x8c\xf9\t7jA'
p269
tp270
Rp271
sa(dp272
g2
S'/home/nherbaut/workspace/algotel2016-code/offline/data/Chicago-IX-daily-in_5T.csvx'
p273
sg4
g5
(g9
S'"i^.\'\xe7sA'
p274
tp275
Rp276
sg15
g5
(g9
S'\xcb\xbe\xb8\xf3\xddVuA'
p277
tp278
Rp279
sg19
g5
(g9
S'I\x97\xd91T-\xf7?'
p280
tp281
Rp282
sg23
g5
(g9
S'\xfb\xe40<\xe7\xd8\x17A'
p283
tp284
Rp285
sg27
g5
(g9
S'\xf1h\x12\xd5\xe4}\xf6?'
p286
tp287
Rp288
sg31
g5
(g9
S'+(\x8a\xdf\x9e\xc0\x1bA'
p289
tp290
Rp291
sg35
F29.166666666666668
sg36
F12.5
sg37
F70.83333333333333
sg38
g5
(g9
S'`\x06\xae]\x860qA'
p292
tp293
Rp294
sa(dp295
g2
S'/home/nherbaut/workspace/algotel2016-code/offline/data/Toronto-IX-daily-in_5T.csvx.out'
p296
sg4
g5
(g9
S'\xa4I\xc1\x95\x83\xe5QA'
p297
tp298
Rp299
sg15
g5
(g9
S'p\xd1Y:\xb4;WA'
p300
tp301
Rp302
sg19
g5
(g9
S'\xeb,\xde\xee\xff.\xe1?'
p303
tp304
Rp305
sg23
g5
(g9
S'\x1f\x91\x7f\xf4c!\xe6@'
p306
tp307
Rp308
sg27
g5
(g9
S'\xe4\x15M\x00p\x00\x04@'
p309
tp310
Rp311
sg31
g5
(g9
S'-d}Mz\x07\xea@'
p312
tp313
Rp314
sg35
F0.0
sg36
F0.0
sg37
F33.333333333333336
sg38
g5
(g9
S'\xd9\xa0\xa1\x04\xa3yBA'
p315
tp316
Rp317
sa(dp318
g2
S'/home/nherbaut/workspace/algotel2016-code/offline/data/pa-dc3-daily_1H.csvx'
p319
sg4
g5
(g9
S'4\xad_\x18\xfa\x9d*B'
p320
tp321
Rp322
sg15
g5
(g9
S'R\x9c\xd1k\xe2\xda+B'
p323
tp324
Rp325
sg19
g5
(g9
S'\xca\x12\xf85w\xaf\xe9?'
p326
tp327
Rp328
sg23
g5
(g9
S'\x1b\x1a\x88#N)\xbaA'
p329
tp330
Rp331
sg27
g5
(g9
S'j>\xfa\x93\xbb?\xdd?'
p332
tp333
Rp334
sg31
g5
(g9
S'\x88_\xd0T\x14\xa0\xbfA'
p335
tp336
Rp337
sg35
F0.0
sg36
F0.0
sg37
F29.166666666666668
sg38
g5
(g9
S'\xbf%\xf7\xef\xd7D(B'
p338
tp339
Rp340
sa(dp341
g2
S'/home/nherbaut/workspace/algotel2016-code/offline/data/Dallas-IX-daily-in_5T.csvx'
p342
sg4
g5
(g9
S'\x08\x84\xfaFw\x85gA'
p343
tp344
Rp345
sg15
g5
(g9
S'C\x17\xfb\xd90\\lA'
p346
tp347
Rp348
sg19
g5
(g9
S'\x0f)f\xbaYf\xd1?'
p349
tp350
Rp351
sg23
g5
(g9
S'\xf8\xb7\x94\xce\x8f\xff\xf6@'
p352
tp353
Rp354
sg27
g5
(g9
S'D?\xf3Zp\x00\xe7?'
p355
tp356
Rp357
sg31
g5
(g9
S'O\x04\xfa%\x83\xc2\xfb@'
p358
tp359
Rp360
sg35
F0.0
sg36
F0.0
sg37
F87.5
sg38
g5
(g9
S'\xa8}\xcf\xa2\xb2,_A'
p361
tp362
Rp363
sa(dp364
g2
S'/home/nherbaut/workspace/algotel2016-code/offline/data/Sydney-IX-daily-out_5T.csvx'
p365
sg4
g5
(g9
S'\xb5S\x1f\x7f\x0eq\xb2A'
p366
tp367
Rp368
sg15
g5
(g9
S'\x07\xfc\xfd^\xcbQ\xb3A'
p369
tp370
Rp371
sg19
g5
(g9
S'\x97\x83\xa8\xea\r\xfe\xf3?'
p372
tp373
Rp374
sg23
g5
(g9
S'\xbb\xb8n\x14\xccFMA'
p375
tp376
Rp377
sg27
g5
(g9
S'\xbe\xcd\x1b\x1f\xd2P\xf4?'
p378
tp379
Rp380
sg31
g5
(g9
S'\x85\xeb\x85N\xf3!QA'
p381
tp382
Rp383
sg35
F4.166666666666667
sg36
F0.0
sg37
F8.333333333333334
sg38
g5
(g9
S'T\x0cAO\x84\xc8\xb0A'
p384
tp385
Rp386
sa(dp387
g2
S'/home/nherbaut/workspace/algotel2016-code/offline/data/Brisbane-IX-daily-out_5T.csvx'
p388
sg4
g5
(g9
S'\x16\x1dI\xc7Y\x89hA'
p389
tp390
Rp391
sg15
g5
(g9
S'[\x0e[\xeb\x9aVkA'
p392
tp393
Rp394
sg19
g5
(g9
S'\xaaOAC\xb43\xf1?'
p395
tp396
Rp397
sg23
g5
(g9
S'\xcb\x1a%\x15\xabp\rA'
p398
tp399
Rp400
sg27
g5
(g9
S'\x12\xac\xd5\x93E"\x07@'
p401
tp402
Rp403
sg31
g5
(g9
S'\xf0"gDr\x9f\x12A'
p404
tp405
Rp406
sg35
F4.166666666666667
sg36
F0.0
sg37
F12.5
sg38
g5
(g9
S'\x87I\x1c\xbel>cA'
p407
tp408
Rp409
sa(dp410
g2
S'/home/nherbaut/workspace/algotel2016-code/offline/data/Melbourne-IX-daily-out_5T.csvx'
p411
sg4
g5
(g9
S'\xb1\x86\x1b\xf1\x17\xbb\x8cA'
p412
tp413
Rp414
sg15
g5
(g9
S'\xc2B\xbf\xa8\xe4<\x8fA'
p415
tp416
Rp417
sg19
g5
(g9
S'\xb1\xe4\xe9\x04\xbd\xf9\x07@'
p418
tp419
Rp420
sg23
g5
(g9
S'h\xe2\n=\x1d\xb6EA'
p421
tp422
Rp423
sg27
g5
(g9
S'\xd6\x9e\t\x13\xb7\x9a\x04@'
p424
tp425
Rp426
sg31
g5
(g9
S'bW\x8a\x8e\x96\xbdIA'
p427
tp428
Rp429
sg35
F66.66666666666667
sg36
F62.5
sg37
F79.16666666666667
sg38
g5
(g9
S'\xd6\xb0\xa9\x7f\xb4\xfe\x87A'
p430
tp431
Rp432
sa(dp433
g2
S'/home/nherbaut/workspace/algotel2016-code/offline/data/Hong-Kong-IX-daily-in_5T.csvx.out'
p434
sg4
g5
(g9
S'\xbac\xf9\xc0\\\xb8mA'
p435
tp436
Rp437
sg15
g5
(g9
S'\xa3\x91\x8bi`\x93oA'
p438
tp439
Rp440
sg19
g5
(g9
S',\xfa\xc3hr\x99\xe9?'
p441
tp442
Rp443
sg23
g5
(g9
S'a\x14\xa6P\xf6y\x0eA'
p444
tp445
Rp446
sg27
g5
(g9
S'^?\xe9\xf3\x93\x0f\xfb?'
p447
tp448
Rp449
sg31
g5
(g9
S'Ke~\xd5\x7f\xc8\x11A'
p450
tp451
Rp452
sg35
F0.0
sg36
F0.0
sg37
F58.333333333333336
sg38
g5
(g9
S't\xb9\x8c\xf9\t7jA'
p453
tp454
Rp455
sa(dp456
g2
S'/home/nherbaut/workspace/algotel2016-code/offline/data/linx-nva1-daily_5T.csvx'
p457
sg4
g5
(g9
S'\xcf5I6f\x0e\x10B'
p458
tp459
Rp460
sg15
g5
(g9
S'\xab\xb1\xb8V\x82\n\x11B'
p461
tp462
Rp463
sg19
g5
(g9
S'\x03\xedL\xb9\xdf\x83\x05@'
p464
tp465
Rp466
sg23
g5
(g9
S'I\xe7\x80\x15\x1e\x02\xc0A'
p467
tp468
Rp469
sg27
g5
(g9
S'`\xa6]\xab\xa0\xda\x17@'
p470
tp471
Rp472
sg31
g5
(g9
S'\xb8Jc\xaf\x9a1\xc3A'
p473
tp474
Rp475
sg35
F4.166666666666667
sg36
F0.0
sg37
F20.833333333333332
sg38
g5
(g9
S'\xc3\xe6f\x05Nd\x0cB'
p476
tp477
Rp478
sa(dp479
g2
S'/home/nherbaut/workspace/algotel2016-code/offline/data/pa-par1-daily_1H.csvx'
p480
sg4
g5
(g9
S'+\x0f:\xee\xb6N#B'
p481
tp482
Rp483
sg15
g5
(g9
S'\x8fNa\x1b\x13\xeb$B'
p484
tp485
Rp486
sg19
g5
(g9
S'\xd3\x8b\xe4\xb9<`\xd5?'
p487
tp488
Rp489
sg23
g5
(g9
S'\xe05\xfd\x10(t\xacA'
p490
tp491
Rp492
sg27
g5
(g9
S'\x93\x80\xa7z\x1f\x01\xdd?'
p493
tp494
Rp495
sg31
g5
(g9
S'8\xe6\xfc{\x8e5\xb0A'
p496
tp497
Rp498
sg35
F0.0
sg36
F0.0
sg37
F75.0
sg38
g5
(g9
S'\x18\x11!\xd7\xc8^!B'
p499
tp500
Rp501
sa(dp502
g2
S'/home/nherbaut/workspace/algotel2016-code/offline/data/Dallas-IX-daily-out_5T.csvx'
p503
sg4
g5
(g9
S'K)\xf8\x1e\xda!hA'
p504
tp505
Rp506
sg15
g5
(g9
S'\x9e\xc3\xc1\xf0\x8f\x08mA'
p507
tp508
Rp509
sg19
g5
(g9
S'  \xe1\xb3F\xaa\xcb?'
p510
tp511
Rp512
sg23
g5
(g9
S'\x85\x1e\xe4\xfb\xbdI\xf2@'
p513
tp514
Rp515
sg27
g5
(g9
S'#\xe9p\xa8k\x93\xe2?'
p516
tp517
Rp518
sg31
g5
(g9
S'#j\xd3iG\xf3\xf5@'
p519
tp520
Rp521
sg35
F0.0
sg36
F0.0
sg37
F66.66666666666667
sg38
g5
(g9
S'\xff\xee\x01\xcb!\x1a`A'
p522
tp523
Rp524
sa(dp525
g2
S'/home/nherbaut/workspace/algotel2016-code/offline/data/Ashburn-IX-daily-in_5T.csvx.out'
p526
sg4
g5
(g9
S'u\x0b<\xbd\x9f\x9cDA'
p527
tp528
Rp529
sg15
g5
(g9
S'\xc4n~\x9a\x12CFA'
p530
tp531
Rp532
sg19
g5
(g9
S'^\x17\xa1\xae\xa1(\xf3?'
p533
tp534
Rp535
sg23
g5
(g9
S'\xad\x054\x19\x06\xa0\xeb@'
p536
tp537
Rp538
sg27
g5
(g9
S'\xe3\x1e\x91\xbd:\x85\x06@'
p539
tp540
Rp541
sg31
g5
(g9
S'\r\xe7\x92\xd0\x06\xbf\xf0@'
p542
tp543
Rp544
sg35
F0.0
sg36
F0.0
sg37
F8.333333333333334
sg38
g5
(g9
S'HU\xb7F\xee\xbcAA'
p545
tp546
Rp547
sa(dp548
g2
S'/home/nherbaut/workspace/algotel2016-code/offline/data/Auckland-IX-daily-in_5T.csvx'
p549
sg4
g5
(g9
S'\xff\xdb\rH\x101\x82A'
p550
tp551
Rp552
sg15
g5
(g9
S'.C\xa5z]\xc7\x83A'
p553
tp554
Rp555
sg19
g5
(g9
S'\x06.J\xc1?\xa4\xe6?'
p556
tp557
Rp558
sg23
g5
(g9
S'[\xd7\xce\x12\xa7z\x14A'
p559
tp560
Rp561
sg27
g5
(g9
S'\xe9\x96\x8ac\xc9@\xed?'
p562
tp563
Rp564
sg31
g5
(g9
S'\xf3 \x90\x0b}\xb6\x19A'
p565
tp566
Rp567
sg35
F0.0
sg36
F0.0
sg37
F58.333333333333336
sg38
g5
(g9
S'7J\x1fL`Z~A'
p568
tp569
Rp570
sa(dp571
g2
S'/home/nherbaut/workspace/algotel2016-code/offline/data/New-York-IX-daily-out_5T.csvx'
p572
sg4
g5
(g9
S'#\xed\x17\xe17\x17bA'
p573
tp574
Rp575
sg15
g5
(g9
S'\x9b\xf7\xf7 bscA'
p576
tp577
Rp578
sg19
g5
(g9
S"4?y@.'\xf2?"
p579
tp580
Rp581
sg23
g5
(g9
S'5\xd6\x13|76\xff@'
p582
tp583
Rp584
sg27
g5
(g9
S'PF\xa1\x14D\xa4\xfb?'
p585
tp586
Rp587
sg31
g5
(g9
S'~\x8fy[\xdd\x86\x03A'
p588
tp589
Rp590
sg35
F4.166666666666667
sg36
F0.0
sg37
F25.0
sg38
g5
(g9
S'0\xa9?N\x87P_A'
p591
tp592
Rp593
sa(dp594
g2
S'/home/nherbaut/workspace/algotel2016-code/offline/data/pa-pa7-daily_1H.csvx'
p595
sg4
g5
(g9
S'\xe1\x8a\xdf\xd3\xc0\xe5*B'
p596
tp597
Rp598
sg15
g5
(g9
S'\xab\xea\xcd\x81th.B'
p599
tp600
Rp601
sg19
g5
(g9
S'GhE\xaf\x86\xaa\xed?'
p602
tp603
Rp604
sg23
g5
(g9
S'(~\xcaew*\xc5A'
p605
tp606
Rp607
sg27
g5
(g9
S'\x0c1j1\xd4e\xec?'
p608
tp609
Rp610
sg31
g5
(g9
S']\xbe\xd7A\xf8A\xceA'
p611
tp612
Rp613
sg35
F0.0
sg36
F0.0
sg37
F45.833333333333336
sg38
g5
(g9
S'\xac\xfd\x126-"$B'
p614
tp615
Rp616
sa(dp617
g2
S'/home/nherbaut/workspace/algotel2016-code/offline/data/Hong-Kong-IX-daily-out_5T.csvx'
p618
sg4
g5
(g9
S'4\xa5g\xe4\xe0:uA'
p619
tp620
Rp621
sg15
g5
(g9
S'\xda\x1a\x03\x140\nzA'
p622
tp623
Rp624
sg19
g5
(g9
S'\xb7[\xd4\x16\xb4\xdc\xe8?'
p625
tp626
Rp627
sg23
g5
(g9
S'S\xf8\xe0\x15\x99W\rA'
p628
tp629
Rp630
sg27
g5
(g9
S'\x1b\xca\xde\x0cIK\xfe?'
p631
tp632
Rp633
sg31
g5
(g9
S'\xbaz\x80A\xeb\xc2\x13A'
p634
tp635
Rp636
sg35
F0.0
sg36
F0.0
sg37
F29.166666666666668
sg38
g5
(g9
S'\x02\xdf\xdd\x1ae?kA'
p637
tp638
Rp639
sa(dp640
g2
S'/home/nherbaut/workspace/algotel2016-code/offline/data/linx-man1-daily_5T.csvx'
p641
sg4
g5
(g9
S'\xd9\x8f\xeb\x82\x95\xaaCB'
p642
tp643
Rp644
sg15
g5
(g9
S'\x18\x89<\xf8LUEB'
p645
tp646
Rp647
sg19
g5
(g9
S'\xe2\xd8H\xdd\x90\xf8\xf2?'
p648
tp649
Rp650
sg23
g5
(g9
S'\x0bw\xb8\xee\x17\xfd\xe3A'
p651
tp652
Rp653
sg27
g5
(g9
S'\x0f\xdc\xb7\xa2\x98\x01\xfb?'
p654
tp655
Rp656
sg31
g5
(g9
S'\x7f\x9fU\xdc\x96\x9e\xe8A'
p657
tp658
Rp659
sg35
F0.0
sg36
F0.0
sg37
F29.166666666666668
sg38
g5
(g9
S'5\xf38C\x7f\x84@B'
p660
tp661
Rp662
sa(dp663
g2
S'/home/nherbaut/workspace/algotel2016-code/offline/data/Singapore-IX-daily-out_5T.csvx'
p664
sg4
g5
(g9
S'\xe8\x9dB\xc5\xf5\r\x94A'
p665
tp666
Rp667
sg15
g5
(g9
S'\x02t\xc0w3=\x95A'
p668
tp669
Rp670
sg19
g5
(g9
S'm\xf2\x18\x82\xd7\xe0\xf6?'
p671
tp672
Rp673
sg23
g5
(g9
S"\xd3\x034'BN3A"
p674
tp675
Rp676
sg27
g5
(g9
S'\xf9\xf9\xb8\x8f\xf1\xcb\x03@'
p677
tp678
Rp679
sg31
g5
(g9
S'\x11\x10<\xb4\x9a\xcd9A'
p680
tp681
Rp682
sg35
F0.0
sg36
F0.0
sg37
F45.833333333333336
sg38
g5
(g9
S'\nm\x05x\xe5K\x92A'
p683
tp684
Rp685
sa(dp686
g2
S'/home/nherbaut/workspace/algotel2016-code/offline/data/Seattle-IX-daily-out_5T.csvx'
p687
sg4
g5
(g9
S'\xd9\xf9\n2\xefevA'
p688
tp689
Rp690
sg15
g5
(g9
S'\x80\x99Q\n=\xa7wA'
p691
tp692
Rp693
sg19
g5
(g9
S'\x0b\xf6\xf6\xe3\\|\xfd?'
p694
tp695
Rp696
sg23
g5
(g9
S'\xd3\xc4\xd5\x97[\x93\x1dA'
p697
tp698
Rp699
sg27
g5
(g9
S'\xe8\xca\xc3\x90CN\x00@'
p700
tp701
Rp702
sg31
g5
(g9
S'\xa8\xe4\x99G\xdb\xa5!A'
p703
tp704
Rp705
sg35
F0.0
sg36
F0.0
sg37
F4.166666666666667
sg38
g5
(g9
S'\xe3\xce\x86\xca7\x11tA'
p706
tp707
Rp708
sa(dp709
g2
S'/home/nherbaut/workspace/algotel2016-code/offline/data/Toronto-IX-daily-out_5T.csvx'
p710
sg4
g5
(g9
S'\xac|\x19\x1d7\xe4QA'
p711
tp712
Rp713
sg15
g5
(g9
S'\x0bY`Q\xdb:WA'
p714
tp715
Rp716
sg19
g5
(g9
S'\xaa^%7{3\xe1?'
p717
tp718
Rp719
sg23
g5
(g9
S'@\x84\xcc\xd5\xb6(\xe6@'
p720
tp721
Rp722
sg27
g5
(g9
S'=\xc6\x1e\xa2\xa8\x08\x04@'
p723
tp724
Rp725
sg31
g5
(g9
S'\x82V\xd8\x9a \x08\xea@'
p726
tp727
Rp728
sg35
F0.0
sg36
F0.0
sg37
F33.333333333333336
sg38
g5
(g9
S'\x02ePJ uBA'
p729
tp730
Rp731
sa(dp732
g2
S'/home/nherbaut/workspace/algotel2016-code/offline/data/Toronto-IX-daily-in_5T.csvx'
p733
sg4
g5
(g9
S'\xa4I\xc1\x95\x83\xe5QA'
p734
tp735
Rp736
sg15
g5
(g9
S'p\xd1Y:\xb4;WA'
p737
tp738
Rp739
sg19
g5
(g9
S'\xeb,\xde\xee\xff.\xe1?'
p740
tp741
Rp742
sg23
g5
(g9
S'\x1f\x91\x7f\xf4c!\xe6@'
p743
tp744
Rp745
sg27
g5
(g9
S'\xe4\x15M\x00p\x00\x04@'
p746
tp747
Rp748
sg31
g5
(g9
S'-d}Mz\x07\xea@'
p749
tp750
Rp751
sg35
F0.0
sg36
F0.0
sg37
F33.333333333333336
sg38
g5
(g9
S'\xd9\xa0\xa1\x04\xa3yBA'
p752
tp753
Rp754
sa(dp755
g2
S'/home/nherbaut/workspace/algotel2016-code/offline/data/ma-i-daily_1H.csvx'
p756
sg4
g5
(g9
S'\xed~\xedA\x8b\x18*B'
p757
tp758
Rp759
sg15
g5
(g9
S'^ru\xf6@J+B'
p760
tp761
Rp762
sg19
g5
(g9
S'\xf0\x83g\xfae\x8d\xdd?'
p763
tp764
Rp765
sg23
g5
(g9
S'\xbfb\x13\x9f\x85\xcc\xb1A'
p766
tp767
Rp768
sg27
g5
(g9
S'\x84{\x9f.\x89_\xd9?'
p769
tp770
Rp771
sg31
g5
(g9
S'o\xac\xbd\x8d\x1c\x1c\xb7A'
p772
tp773
Rp774
sg35
F4.166666666666667
sg36
F0.0
sg37
F70.83333333333333
sg38
g5
(g9
S'\x8bxoo\x82\xa7(B'
p775
tp776
Rp777
sa(dp778
g2
S'/home/nherbaut/workspace/algotel2016-code/offline/data/ecix-daily_ham_5T.csvx'
p779
sg4
g5
(g9
S'P\xfc\\J\xfaCfB'
p780
tp781
Rp782
sg15
g5
(g9
S'\xaeZO*<sgB'
p783
tp784
Rp785
sg19
g5
(g9
S'\x1e\xf6_\xe5\x82D\xed?'
p786
tp787
Rp788
sg23
g5
(g9
S'"\x96E\xf2\xf7\xe5\xf4A'
p789
tp790
Rp791
sg27
g5
(g9
S'\xa8\x10\x85\x99\x12\xb2\xe1?'
p792
tp793
Rp794
sg31
g5
(g9
S'I0\x16\xaeL\xae\xf9A'
p795
tp796
Rp797
sg35
F8.333333333333334
sg36
F0.0
sg37
F58.333333333333336
sg38
g5
(g9
S'\xa0\xfd\xf8h\x1c\x07dB'
p798
tp799
Rp800
sa(dp801
g2
S'/home/nherbaut/workspace/algotel2016-code/offline/data/ecix-dus-daily_5T.csvx'
p802
sg4
g5
(g9
S'lI\x0cT\xef\xc2\x8fB'
p803
tp804
Rp805
sg15
g5
(g9
S'\xbd\xce\xe6\xa03\x8e\x90B'
p806
tp807
Rp808
sg19
g5
(g9
S'\xeb\xda\xec \x1ay\xed?'
p809
tp810
Rp811
sg23
g5
(g9
S'\x00\x80\xa7!\xe0\x1b\x17B'
p812
tp813
Rp814
sg27
g5
(g9
S'H\xb2\xd8.\x9ay\xe1?'
p815
tp816
Rp817
sg31
g5
(g9
S'\x00\x00\x00\x00\x00\x00\xf8\xff'
p818
tp819
Rp820
sg35
F0.0
sg36
F0.0
sg37
F66.66666666666667
sg38
g5
(g9
S'\x9e\xa9yST6\x8dB'
p821
tp822
Rp823
sa(dp824
g2
S'/home/nherbaut/workspace/algotel2016-code/offline/data/Bay-Area-IX-daily-in_5T.csvx'
p825
sg4
g5
(g9
S'\x0cM*R5j\x84A'
p826
tp827
Rp828
sg15
g5
(g9
S'QP`\x9f\x8a#\x85A'
p829
tp830
Rp831
sg19
g5
(g9
S'\xb4\xa3m2\x9a\xce\xfe?'
p832
tp833
Rp834
sg23
g5
(g9
S'\x00:\xc3\x18\xe3_)A'
p835
tp836
Rp837
sg27
g5
(g9
S';8\xcd[\x1aS\xf4?'
p838
tp839
Rp840
sg31
g5
(g9
S'\x8e\xbe\xf2\xd6\xc2\xd2,A'
p841
tp842
Rp843
sg35
F62.5
sg36
F33.333333333333336
sg37
F100.0
sg38
g5
(g9
S'\xbb\xdb\xd3\x88\xdcI\x83A'
p844
tp845
Rp846
sa(dp847
g2
S'/home/nherbaut/workspace/algotel2016-code/offline/data/Perth-IX-daily-out_5T.csvx'
p848
sg4
g5
(g9
S'\x94\xc4\xf0\xfa01\xf8?'
p849
tp850
Rp851
sg15
g5
(g9
S'f\xce\x94\x8f\xbf\x9b\xf8?'
p852
tp853
Rp854
sg19
g5
(g9
S'\x03\xd1\x134K\xcf\xe4?'
p855
tp856
Rp857
sg23
g5
(g9
S'Ez\x9a\xe8N\xber?'
p858
tp859
Rp860
sg27
g5
(g9
S'6\xcd\x86T\xce\xe0\xc9?'
p861
tp862
Rp863
sg31
g5
(g9
S'O\x03V\xdb\xd3\xf5v?'
p864
tp865
Rp866
sg35
F4.166666666666667
sg36
F0.0
sg37
F54.166666666666664
sg38
g5
(g9
S'\x8e\xd4\xc9\x83\xe6g\xf7?'
p867
tp868
Rp869
sa(dp870
g2
S'/home/nherbaut/workspace/algotel2016-code/offline/data/Melbourne-IX-daily-in_5T.csvx'
p871
sg4
g5
(g9
S'\x05\xceJSQ\xb5\x8cA'
p872
tp873
Rp874
sg15
g5
(g9
S'(\x05\xe7\xe4^7\x8fA'
p875
tp876
Rp877
sg19
g5
(g9
S'\x19J\xce<_\xf3\x07@'
p878
tp879
Rp880
sg23
g5
(g9
S'\xf9\x89>\xd6a\xaaEA'
p881
tp882
Rp883
sg27
g5
(g9
S'n\xf35JG\x95\x04@'
p884
tp885
Rp886
sg31
g5
(g9
S'n\xe6\x9a\xf6\x80\xacIA'
p887
tp888
Rp889
sg35
F66.66666666666667
sg36
F62.5
sg37
F79.16666666666667
sg38
g5
(g9
S'E}\xfa_s\xf8\x87A'
p890
tp891
Rp892
sa(dp893
g2
S'/home/nherbaut/workspace/algotel2016-code/offline/data/Los-Angeles-IX-daily-out_5T.csvx'
p894
sg4
g5
(g9
S'SD\x11\xa2fVyA'
p895
tp896
Rp897
sg15
g5
(g9
S'\xcfLhQ\x8en\x81A'
p898
tp899
Rp900
sg19
g5
(g9
S'\xcdT}\xeby\xa8\xd7?'
p901
tp902
Rp903
sg23
g5
(g9
S'\xddWQV\x03f\x0bA'
p904
tp905
Rp906
sg27
g5
(g9
S'=\xd1\xb8\xd0\xe1\x87\xfa?'
p907
tp908
Rp909
sg31
g5
(g9
S'\xbb\x14\xdd\x0e\xb0<\x0eA'
p910
tp911
Rp912
sg35
F0.0
sg36
F0.0
sg37
F91.66666666666667
sg38
g5
(g9
S'\xf3\x03\xcd\x1b>{fA'
p913
tp914
Rp915
sa(dp916
g2
S'/home/nherbaut/workspace/algotel2016-code/offline/data/linx-lon1-daily_5T.csvx'
p917
sg4
g5
(g9
S'GA\x8eG\xaa\xa9\xabB'
p918
tp919
Rp920
sg15
g5
(g9
S'=\x95\xf4~5)\xadB'
p921
tp922
Rp923
sg19
g5
(g9
S'\xc9s\xe9\x89\x9dv\xdd?'
p924
tp925
Rp926
sg23
g5
(g9
S'U\x95\xf8\xa0\xde\\$B'
p927
tp928
Rp929
sg27
g5
(g9
S'_zqcAj\xcf?'
p930
tp931
Rp932
sg31
g5
(g9
S'\x00\x00\x00\x00\x00\x00\xf8\xff'
p933
tp934
Rp935
sg35
F0.0
sg36
F0.0
sg37
F54.166666666666664
sg38
g5
(g9
S'\xd6\x16j6"\xd5\xa8B'
p936
tp937
Rp938
sa(dp939
g2
S'/home/nherbaut/workspace/algotel2016-code/offline/data/Singapore-IX-daily-in_5T.csvx'
p940
sg4
g5
(g9
S'7\x08\xf1\x98\xd5\x95\x93A'
p941
tp942
Rp943
sg15
g5
(g9
S'\xb8\x99\xf4\xbf\x0c5\x95A'
p944
tp945
Rp946
sg19
g5
(g9
S'O\xc4A|\xff\xfe\xf7?'
p947
tp948
Rp949
sg23
g5
(g9
S'T\xfe)\xc6~\xeb4A'
p950
tp951
Rp952
sg27
g5
(g9
S'1;\x98\xee\x87\xc1\x04@'
p953
tp954
Rp955
sg31
g5
(g9
S'\x85a\x93%\r0;A'
p956
tp957
Rp958
sg35
F0.0
sg36
F0.0
sg37
F58.333333333333336
sg38
g5
(g9
S'\x96D)\xbf\xed\xbe\x91A'
p959
tp960
Rp961
sa(dp962
g2
S'/home/nherbaut/workspace/algotel2016-code/offline/data/ecix-fra-daily_5T.csvx'
p963
sg4
g5
(g9
S'\xf1\x8b\x02\xa2\xa0.\x82B'
p964
tp965
Rp966
sg15
g5
(g9
S'c\x9e#\x80\xaa\xe1\x82B'
p967
tp968
Rp969
sg19
g5
(g9
S'y\x051r|\xdb\xed?'
p970
tp971
Rp972
sg23
g5
(g9
S'pu\x01^\xa5J\tB'
p973
tp974
Rp975
sg27
g5
(g9
S'\\\x12V\x00R\xc4\xdd?'
p976
tp977
Rp978
sg31
g5
(g9
S'!r\xf4M?\xa3\rB'
p979
tp980
Rp981
sg35
F4.166666666666667
sg36
F0.0
sg37
F75.0
sg38
g5
(g9
S'\xf1\x9fQej\xdc\x80B'
p982
tp983
Rp984
sa(dp985
g2
S'/home/nherbaut/workspace/algotel2016-code/offline/data/ecix-daily_muc_5T.csvx'
p986
sg4
g5
(g9
S'\xa8\x17\x05\x91\x03~8B'
p987
tp988
Rp989
sg15
g5
(g9
S'\x14\xc1\xa2\x98\xbd\x7f;B'
p990
tp991
Rp992
sg19
g5
(g9
S'\xf7\x93\xb5\x04\xd6\x98\xf7?'
p993
tp994
Rp995
sg23
g5
(g9
S'{\x14v\x14\xe7\\\xe7A'
p996
tp997
Rp998
sg27
g5
(g9
S'\xb5\xb0\x0cQ\xd5Z\x02@'
p999
tp1000
Rp1001
sg31
g5
(g9
S'\xdb\x99\xad2!\xf7\xefA'
p1002
tp1003
Rp1004
sg35
F12.5
sg36
F12.5
sg37
F16.666666666666668
sg38
g5
(g9
S'&\x08\x173\xf7\xcf2B'
p1005
tp1006
Rp1007
sa(dp1008
g2
S'/home/nherbaut/workspace/algotel2016-code/offline/data/ecix-dus-daily_dus_5T.csvx'
p1009
sg4
g5
(g9
S'lI\x0cT\xef\xc2\x8fB'
p1010
tp1011
Rp1012
sg15
g5
(g9
S'\xbd\xce\xe6\xa03\x8e\x90B'
p1013
tp1014
Rp1015
sg19
g5
(g9
S'\xeb\xda\xec \x1ay\xed?'
p1016
tp1017
Rp1018
sg23
g5
(g9
S'\x00\x80\xa7!\xe0\x1b\x17B'
p1019
tp1020
Rp1021
sg27
g5
(g9
S'H\xb2\xd8.\x9ay\xe1?'
p1022
tp1023
Rp1024
sg31
g5
(g9
S'\x00\x00\x00\x00\x00\x00\xf8\xff'
p1025
tp1026
Rp1027
sg35
F0.0
sg36
F0.0
sg37
F66.66666666666667
sg38
g5
(g9
S'\x9e\xa9yST6\x8dB'
p1028
tp1029
Rp1030
sa(dp1031
g2
S'/home/nherbaut/workspace/algotel2016-code/offline/data/linx-sco1-daily_5T.csvx'
p1032
sg4
g5
(g9
S't\\(\xf5\xa4\xee\xcdA'
p1033
tp1034
Rp1035
sg15
g5
(g9
S'\xa5c\x8cK\xff\x0e\xd1A'
p1036
tp1037
Rp1038
sg19
g5
(g9
S'\x96\xc7O\x00\x91\x11\xf3?'
p1039
tp1040
Rp1041
sg23
g5
(g9
S'\xf0DS _\x96zA'
p1042
tp1043
Rp1044
sg27
g5
(g9
S'\xec\x02X^\x1b3\x05@'
p1045
tp1046
Rp1047
sg31
g5
(g9
S'\xfb\x11\x9f\xc9\xda\xe0\x7fA'
p1048
tp1049
Rp1050
sg35
F20.833333333333332
sg36
F4.166666666666667
sg37
F54.166666666666664
sg38
g5
(g9
S' hH\xd8\xd0\x06\xc6A'
p1051
tp1052
Rp1053
sa(dp1054
g2
S'/home/nherbaut/workspace/algotel2016-code/offline/data/pa-th3-daily_1H.csvx'
p1055
sg4
g5
(g9
S'\x87\x8a\xaa\xe3\xe9$(B'
p1056
tp1057
Rp1058
sg15
g5
(g9
S'\x96\r\xb6\xf38M+B'
p1059
tp1060
Rp1061
sg19
g5
(g9
S'R\xe6"\x89\x04/\xd9?'
p1062
tp1063
Rp1064
sg23
g5
(g9
S'\r8\x10\xd1r\x15\xc2A'
p1065
tp1066
Rp1067
sg27
g5
(g9
S'\xa2^)]\xd9\x84\xf0?'
p1068
tp1069
Rp1070
sg31
g5
(g9
S'\x9a\x89P\x89\x9c\xc6\xc8A'
p1071
tp1072
Rp1073
sg35
F8.333333333333334
sg36
F0.0
sg37
F66.66666666666667
sg38
g5
(g9
S'\xb4\xfd&\xf0\xf0""B'
p1074
tp1075
Rp1076
sa(dp1077
g2
S'/home/nherbaut/workspace/algotel2016-code/offline/data/Auckland-IX-daily-out_5T.csvx'
p1078
sg4
g5
(g9
S'\x7f\x8c\x9b\xcc\x82/\x82A'
p1079
tp1080
Rp1081
sg15
g5
(g9
S'R"\x19\xa2\xd1\xc4\x83A'
p1082
tp1083
Rp1084
sg19
g5
(g9
S'W\xd7\xba\x15\x81\x9a\xe6?'
p1085
tp1086
Rp1087
sg23
g5
(g9
S'\xcd3Us\xaaa\x14A'
p1088
tp1089
Rp1090
sg27
g5
(g9
S'\xed\x07e\t*\x15\xed?'
p1091
tp1092
Rp1093
sg31
g5
(g9
S'\x81i!<\xc5\x92\x19A'
p1094
tp1095
Rp1096
sg35
F0.0
sg36
F0.0
sg37
F58.333333333333336
sg38
g5
(g9
S'\xcaC\xbct\xfcZ~A'
p1097
tp1098
Rp1099
sa(dp1100
g2
S'/home/nherbaut/workspace/algotel2016-code/offline/data/Brisbane-IX-daily-in_5T.csvx'
p1101
sg4
g5
(g9
S'6K\xcf\x99u\xabiA'
p1102
tp1103
Rp1104
sg15
g5
(g9
S'P\xd8\x8b\xe5HflA'
p1105
tp1106
Rp1107
sg19
g5
(g9
S'^\x13r \xd4\xe9\xf6?'
p1108
tp1109
Rp1110
sg23
g5
(g9
S"JM\xbb\x94'\x01\x13A"
p1111
tp1112
Rp1113
sg27
g5
(g9
S'\xf6\n\x04\xfb\xc0(\x11@'
p1114
tp1115
Rp1116
sg31
g5
(g9
S'I\xe9\x01\xf9\\T\x17A'
p1117
tp1118
Rp1119
sg35
F4.166666666666667
sg36
F0.0
sg37
F16.666666666666668
sg38
g5
(g9
S'^\x85S\xc9X\x83dA'
p1120
tp1121
Rp1122
sa(dp1123
g2
S'/home/nherbaut/workspace/algotel2016-code/offline/data/Sydney-IX-daily-in_5T.csvx'
p1124
sg4
g5
(g9
S'\xe7\xb2\xf3;\xd50\xb5A'
p1125
tp1126
Rp1127
sg15
g5
(g9
S'S\xe7C"\xfc\xa6\xb6A'
p1128
tp1129
Rp1130
sg19
g5
(g9
S'\x8d\x88\xa6\x81\xad\xfc\x02@'
p1131
tp1132
Rp1133
sg23
g5
(g9
S'=\x1dk\xcd\xfa~\\A'
p1134
tp1135
Rp1136
sg27
g5
(g9
S'\x19\x1e\xcd\xe6\xab\xc6\x03@'
p1137
tp1138
Rp1139
sg31
g5
(g9
S'\x11o\x80\xb0>\x1b_A'
p1140
tp1141
Rp1142
sg35
F0.0
sg36
F0.0
sg37
F4.166666666666667
sg38
g5
(g9
S"J\xfe'\xc4\xac\x90\xb2A"
p1143
tp1144
Rp1145
sa(dp1146
g2
S'/home/nherbaut/workspace/algotel2016-code/offline/data/New-York-IX-daily-in_5T.csvx'
p1147
sg4
g5
(g9
S'\xc7\xc9r\xe4\xfe&bA'
p1148
tp1149
Rp1150
sg15
g5
(g9
S'p\xd2\x06k \x84cA'
p1151
tp1152
Rp1153
sg19
g5
(g9
S'*\xd0\x0c-\x14\x90\xf2?'
p1154
tp1155
Rp1156
sg23
g5
(g9
S'v\x94$\x01\xe8\t\x00A'
p1157
tp1158
Rp1159
sg27
g5
(g9
S'D\xc7\xd9;\x99*\xfd?'
p1160
tp1161
Rp1162
sg31
g5
(g9
S'\x10\xff\xeey\xbe?\x04A'
p1163
tp1164
Rp1165
sg35
F4.166666666666667
sg36
F0.0
sg37
F25.0
sg38
g5
(g9
S'K\xd9h1\xf2j_A'
p1166
tp1167
Rp1168
sa(dp1169
g2
S'/home/nherbaut/workspace/algotel2016-code/offline/data/linx-lon2-daily_5T.csvx'
p1170
sg4
g5
(g9
S'\x9f\xc2\xcdj\x9bQ\x84B'
p1171
tp1172
Rp1173
sg15
g5
(g9
S'\xba\xaf\x98\xba\x80\xa9\x85B'
p1174
tp1175
Rp1176
sg19
g5
(g9
S'\x18\x86\x01q\xc3`\xf2?'
p1177
tp1178
Rp1179
sg23
g5
(g9
S'\xab\xaai\xe5%\x87\x1bB'
p1180
tp1181
Rp1182
sg27
g5
(g9
S'\x90eO\xb2\xb9 \xec?'
p1183
tp1184
Rp1185
sg31
g5
(g9
S'\x00\x00\x00\x00\x00\x00\xf8\xff'
p1186
tp1187
Rp1188
sg35
F0.0
sg36
F0.0
sg37
F20.833333333333332
sg38
g5
(g9
S'v`\x06\xfa\xf8\xc7\x81B'
p1189
tp1190
Rp1191
sa(dp1192
g2
S'/home/nherbaut/workspace/algotel2016-code/offline/data/ecix-ham-daily_5T.csvx'
p1193
sg4
g5
(g9
S'P\xfc\\J\xfaCfB'
p1194
tp1195
Rp1196
sg15
g5
(g9
S'\xaeZO*<sgB'
p1197
tp1198
Rp1199
sg19
g5
(g9
S'\x1e\xf6_\xe5\x82D\xed?'
p1200
tp1201
Rp1202
sg23
g5
(g9
S'"\x96E\xf2\xf7\xe5\xf4A'
p1203
tp1204
Rp1205
sg27
g5
(g9
S'\xa8\x10\x85\x99\x12\xb2\xe1?'
p1206
tp1207
Rp1208
sg31
g5
(g9
S'I0\x16\xaeL\xae\xf9A'
p1209
tp1210
Rp1211
sg35
F8.333333333333334
sg36
F0.0
sg37
F58.333333333333336
sg38
g5
(g9
S'\xa0\xfd\xf8h\x1c\x07dB'
p1212
tp1213
Rp1214
sa(dp1215
g2
S'/home/nherbaut/workspace/algotel2016-code/offline/data/Bay-Area-IX-daily-out_5T.csvx'
p1216
sg4
g5
(g9
S'w\xc4$w\x9ca\x84A'
p1217
tp1218
Rp1219
sg15
g5
(g9
S'\xbd\x03\xd5\x08\xcb\x1b\x85A'
p1220
tp1221
Rp1222
sg19
g5
(g9
S'\xc1s\xd9\xa1\x18\xd6\xfe?'
p1223
tp1224
Rp1225
sg23
g5
(g9
S'\x90\x06\x9c\xaf\x81x)A'
p1226
tp1227
Rp1228
sg27
g5
(g9
S'J\x81\xfd%\xfdk\xf4?'
p1229
tp1230
Rp1231
sg31
g5
(g9
S'G\x19T\x059\xe5,A'
p1232
tp1233
Rp1234
sg35
F62.5
sg36
F33.333333333333336
sg37
F100.0
sg38
g5
(g9
S'D\xe7\xec\xa6yA\x83A'
p1235
tp1236
Rp1237
sa(dp1238
g2
S'/home/nherbaut/workspace/algotel2016-code/offline/data/Ashburn-IX-daily-in_5T.csvx'
p1239
sg4
g5
(g9
S'u\x0b<\xbd\x9f\x9cDA'
p1240
tp1241
Rp1242
sg15
g5
(g9
S'\xc4n~\x9a\x12CFA'
p1243
tp1244
Rp1245
sg19
g5
(g9
S'^\x17\xa1\xae\xa1(\xf3?'
p1246
tp1247
Rp1248
sg23
g5
(g9
S'\xad\x054\x19\x06\xa0\xeb@'
p1249
tp1250
Rp1251
sg27
g5
(g9
S'\xe3\x1e\x91\xbd:\x85\x06@'
p1252
tp1253
Rp1254
sg31
g5
(g9
S'\r\xe7\x92\xd0\x06\xbf\xf0@'
p1255
tp1256
Rp1257
sg35
F0.0
sg36
F0.0
sg37
F8.333333333333334
sg38
g5
(g9
S'HU\xb7F\xee\xbcAA'
p1258
tp1259
Rp1260
sa(dp1261
g2
S'/home/nherbaut/workspace/algotel2016-code/offline/data/pa-dc2-daily_1H.csvx'
p1262
sg4
g5
(g9
S'\xfc\xec)\x16o\x95*B'
p1263
tp1264
Rp1265
sg15
g5
(g9
S'\xa20\xe8vq\xe1,B'
p1266
tp1267
Rp1268
sg19
g5
(g9
S'G\xae\xd6\xd6\xc9\xfa\xe2?'
p1269
tp1270
Rp1271
sg23
g5
(g9
S'\x87\xce\x8e@\x8aU\xb3A'
p1272
tp1273
Rp1274
sg27
g5
(g9
S'K\x14n\rOj\xd9?'
p1275
tp1276
Rp1277
sg31
g5
(g9
S'Z\x95)\x89\x1bi\xb6A'
p1278
tp1279
Rp1280
sg35
F4.166666666666667
sg36
F0.0
sg37
F87.5
sg38
g5
(g9
S"\xf3\xd2\x05~\xe0\xfd'B"
p1281
tp1282
Rp1283
sa.